; Function Attrs: mustprogress nofree norecurse nosync nounwind willreturn memory(argmem: read) uwtable
define hidden range(i32 0, 2) i32 @av1_is_min_tile_width_satisfied(ptr nocapture noundef readonly %0) local_unnamed_addr #2 {
  %2 = getelementptr inbounds nuw i8, ptr %0, i64 27136
  %3 = load i32, ptr %2, align 16
  %4 = icmp eq i32 %3, 1
  br i1 %4, label %16, label %5

5:                                                ; preds = %1
  %6 = getelementptr inbounds i8, ptr %0, i64 27152
  %7 = load i32, ptr %6, align 16
  %8 = shl i32 %7, 2
  %9 = getelementptr i8, ptr %0, i64 456
  %.val = load i32, ptr %9, align 8
  %10 = getelementptr i8, ptr %0, i64 472
  %.val3 = load i32, ptr %10, align 8
  %11 = icmp ne i32 %.val, %.val3
  %12 = zext i1 %11 to i32
  %13 = shl nuw nsw i32 64, %12
  %14 = icmp sge i32 %8, %13
  %15 = zext i1 %14 to i32
  br label %16

16:                                               ; preds = %1, %5
  %.0 = phi i32 [ %15, %5 ], [ 1, %1 ]
  ret i32 %.0
}